target datalayout = "e-m:e-p270:32:32-p271:32:32-p272:64:64-i64:64-i128:128-f80:128-n8:16:32:64-S128"
target triple = "x86_64-pc-linux-gnu"

@__const.dt_str_commasubstring.delimiter = private unnamed_addr constant [2 x i8] c",\00", align 1

; Function Attrs: nounwind uwtable
define i32 @dt_str_commasubstring(ptr noundef %0, ptr noundef %1) #0 {
  %3 = alloca i32, align 4
  %4 = alloca ptr, align 8
  %5 = alloca ptr, align 8
  %6 = alloca ptr, align 8
  %7 = alloca [2 x i8], align 1
  %8 = alloca ptr, align 8
  %9 = alloca i32, align 4
  store ptr %0, ptr %4, align 8, !tbaa !6
  store ptr %1, ptr %5, align 8, !tbaa !6
  %10 = load ptr, ptr %5, align 8, !tbaa !6
  %11 = icmp eq ptr %10, null
  br i1 %11, label %12, label %13

12:                                               ; preds = %2
  store i32 0, ptr %3, align 4
  br label %35

13:                                               ; preds = %2
  call void @llvm.lifetime.start.p0(i64 8, ptr %6) #18
  %14 = load ptr, ptr %4, align 8, !tbaa !6
  %15 = call noalias ptr @g_strdup(ptr noundef %14)
  store ptr %15, ptr %6, align 8, !tbaa !6
  call void @llvm.lifetime.start.p0(i64 2, ptr %7) #18
  call void @llvm.memcpy.p0.p0.i64(ptr align 1 %7, ptr align 1 @__const.dt_str_commasubstring.delimiter, i64 2, i1 false)
  call void @llvm.lifetime.start.p0(i64 8, ptr %8) #18
  %16 = load ptr, ptr %6, align 8, !tbaa !6
  %17 = getelementptr inbounds [2 x i8], ptr %7, i64 0, i64 0
  %18 = call ptr @strtok(ptr noundef %16, ptr noundef %17) #18
  store ptr %18, ptr %8, align 8, !tbaa !6
  br label %19

19:                                               ; preds = %29, %13
  %20 = load ptr, ptr %8, align 8, !tbaa !6
  %21 = icmp ne ptr %20, null
  br i1 %21, label %22, label %32

22:                                               ; preds = %19
  %23 = load ptr, ptr %5, align 8, !tbaa !6
  %24 = load ptr, ptr %8, align 8, !tbaa !6
  %25 = call i32 @g_strcmp0(ptr noundef %23, ptr noundef %24)
  %26 = icmp eq i32 %25, 0
  br i1 %26, label %27, label %29

27:                                               ; preds = %22
  %28 = load ptr, ptr %6, align 8, !tbaa !6
  call void @g_free(ptr noundef %28)
  store i32 1, ptr %3, align 4
  store i32 1, ptr %9, align 4
  br label %34

29:                                               ; preds = %22
  %30 = getelementptr inbounds [2 x i8], ptr %7, i64 0, i64 0
  %31 = call ptr @strtok(ptr noundef null, ptr noundef %30) #18
  store ptr %31, ptr %8, align 8, !tbaa !6
  br label %19

32:                                               ; preds = %19
  %33 = load ptr, ptr %6, align 8, !tbaa !6
  call void @g_free(ptr noundef %33)
  store i32 0, ptr %3, align 4
  store i32 1, ptr %9, align 4
  br label %34

34:                                               ; preds = %32, %27
  call void @llvm.lifetime.end.p0(i64 8, ptr %8) #18
  call void @llvm.lifetime.end.p0(i64 2, ptr %7) #18
  call void @llvm.lifetime.end.p0(i64 8, ptr %6) #18
  br label %35

35:                                               ; preds = %34, %12
  %36 = load i32, ptr %3, align 4
  ret i32 %36
}