; Function Attrs: nounwind uwtable
define range(i32 0, 2) i32 @dt_str_commasubstring(ptr noundef %0, ptr noundef %1) local_unnamed_addr #0 {
  %3 = icmp eq ptr %1, null
  br i1 %3, label %11, label %4

4:                                                ; preds = %2
  %5 = tail call noalias ptr @g_strdup(ptr noundef %0) #27
  %6 = tail call ptr @strtok(ptr noundef %5, ptr noundef nonnull @__const.dt_str_commasubstring.delimiter) #27
  %.not10 = icmp eq ptr %6, null
  br i1 %.not10, label %.sink.split, label %.lr.ph

.lr.ph:                                           ; preds = %4, %9
  %.011 = phi ptr [ %10, %9 ], [ %6, %4 ]
  %7 = tail call i32 @g_strcmp0(ptr noundef nonnull %1, ptr noundef nonnull %.011) #27
  %8 = icmp eq i32 %7, 0
  br i1 %8, label %.sink.split, label %9

9:                                                ; preds = %.lr.ph
  %10 = tail call ptr @strtok(ptr noundef null, ptr noundef nonnull @__const.dt_str_commasubstring.delimiter) #27
  %.not = icmp eq ptr %10, null
  br i1 %.not, label %.sink.split, label %.lr.ph

.sink.split:                                      ; preds = %9, %.lr.ph, %4
  %.08.ph = phi i32 [ 0, %4 ], [ 1, %.lr.ph ], [ 0, %9 ]
  tail call void @g_free(ptr noundef %5) #27
  br label %11

11:                                               ; preds = %.sink.split, %2
  %.08 = phi i32 [ 0, %2 ], [ %.08.ph, %.sink.split ]
  ret i32 %.08
}